target datalayout = "e-m:e-p270:32:32-p271:32:32-p272:64:64-i64:64-i128:128-f80:128-n8:16:32:64-S128"
target triple = "x86_64-pc-linux-gnu"

%struct.BrotliTwoPassArena = type { [256 x i32], [256 x i8], [256 x i16], [128 x i32], [128 x i8], [128 x i16], [513 x %struct.HuffmanTree], [704 x i8], [64 x i16] }
%struct.HuffmanTree = type { i32, i16, i16 }

@kBrotliLog2Table = external hidden constant [256 x double], align 16

; Function Attrs: alwaysinline nounwind uwtable
define internal double @FastLog2(i64 noundef %0) #2 {
  %2 = alloca double, align 8
  %3 = alloca i64, align 8
  store i64 %0, ptr %3, align 8, !tbaa !10
  %4 = load i64, ptr %3, align 8, !tbaa !10
  %5 = icmp ult i64 %4, 256
  br i1 %5, label %6, label %10

6:                                                ; preds = %1
  %7 = load i64, ptr %3, align 8, !tbaa !10
  %8 = getelementptr inbounds nuw [256 x double], ptr @kBrotliLog2Table, i64 0, i64 %7
  %9 = load double, ptr %8, align 8, !tbaa !27
  store double %9, ptr %2, align 8
  br label %14

10:                                               ; preds = %1
  %11 = load i64, ptr %3, align 8, !tbaa !10
  %12 = uitofp i64 %11 to double
  %13 = call double @log2(double noundef %12) #10, !tbaa !12
  store double %13, ptr %2, align 8
  br label %14

14:                                               ; preds = %10, %6
  %15 = load double, ptr %2, align 8
  ret double %15
}

; Function Attrs: alwaysinline nounwind uwtable
define internal double @ShannonEntropy(ptr noundef %0, i64 noundef %1, ptr noundef %2) #2 {
  %4 = alloca ptr, align 8
  %5 = alloca i64, align 8
  %6 = alloca ptr, align 8
  %7 = alloca i64, align 8
  %8 = alloca double, align 8
  %9 = alloca ptr, align 8
  %10 = alloca i64, align 8
  store ptr %0, ptr %4, align 8, !tbaa !14
  store i64 %1, ptr %5, align 8, !tbaa !10
  store ptr %2, ptr %6, align 8, !tbaa !16
  call void @llvm.lifetime.start.p0(i64 8, ptr %7) #10
  store i64 0, ptr %7, align 8, !tbaa !10
  call void @llvm.lifetime.start.p0(i64 8, ptr %8) #10
  store double 0.000000e+00, ptr %8, align 8, !tbaa !27
  call void @llvm.lifetime.start.p0(i64 8, ptr %9) #10
  %11 = load ptr, ptr %4, align 8, !tbaa !14
  %12 = load i64, ptr %5, align 8, !tbaa !10
  %13 = getelementptr inbounds nuw i32, ptr %11, i64 %12
  store ptr %13, ptr %9, align 8, !tbaa !14
  call void @llvm.lifetime.start.p0(i64 8, ptr %10) #10
  %14 = load i64, ptr %5, align 8, !tbaa !10
  %15 = and i64 %14, 1
  %16 = icmp ne i64 %15, 0
  br i1 %16, label %17, label %18

17:                                               ; preds = %3
  br label %38

18:                                               ; preds = %3
  br label %19

19:                                               ; preds = %38, %18
  %20 = load ptr, ptr %4, align 8, !tbaa !14
  %21 = load ptr, ptr %9, align 8, !tbaa !14
  %22 = icmp ult ptr %20, %21
  br i1 %22, label %23, label %53

23:                                               ; preds = %19
  %24 = load ptr, ptr %4, align 8, !tbaa !14
  %25 = getelementptr inbounds nuw i32, ptr %24, i32 1
  store ptr %25, ptr %4, align 8, !tbaa !14
  %26 = load i32, ptr %24, align 4, !tbaa !12
  %27 = zext i32 %26 to i64
  store i64 %27, ptr %10, align 8, !tbaa !10
  %28 = load i64, ptr %10, align 8, !tbaa !10
  %29 = load i64, ptr %7, align 8, !tbaa !10
  %30 = add i64 %29, %28
  store i64 %30, ptr %7, align 8, !tbaa !10
  %31 = load i64, ptr %10, align 8, !tbaa !10
  %32 = uitofp i64 %31 to double
  %33 = load i64, ptr %10, align 8, !tbaa !10
  %34 = call double @FastLog2(i64 noundef %33)
  %35 = load double, ptr %8, align 8, !tbaa !27
  %36 = fneg double %32
  %37 = call double @llvm.fmuladd.f64(double %36, double %34, double %35)
  store double %37, ptr %8, align 8, !tbaa !27
  br label %38

38:                                               ; preds = %23, %17
  %39 = load ptr, ptr %4, align 8, !tbaa !14
  %40 = getelementptr inbounds nuw i32, ptr %39, i32 1
  store ptr %40, ptr %4, align 8, !tbaa !14
  %41 = load i32, ptr %39, align 4, !tbaa !12
  %42 = zext i32 %41 to i64
  store i64 %42, ptr %10, align 8, !tbaa !10
  %43 = load i64, ptr %10, align 8, !tbaa !10
  %44 = load i64, ptr %7, align 8, !tbaa !10
  %45 = add i64 %44, %43
  store i64 %45, ptr %7, align 8, !tbaa !10
  %46 = load i64, ptr %10, align 8, !tbaa !10
  %47 = uitofp i64 %46 to double
  %48 = load i64, ptr %10, align 8, !tbaa !10
  %49 = call double @FastLog2(i64 noundef %48)
  %50 = load double, ptr %8, align 8, !tbaa !27
  %51 = fneg double %47
  %52 = call double @llvm.fmuladd.f64(double %51, double %49, double %50)
  store double %52, ptr %8, align 8, !tbaa !27
  br label %19, !llvm.loop !39

53:                                               ; preds = %19
  %54 = load i64, ptr %7, align 8, !tbaa !10
  %55 = icmp ne i64 %54, 0
  br i1 %55, label %56, label %63

56:                                               ; preds = %53
  %57 = load i64, ptr %7, align 8, !tbaa !10
  %58 = uitofp i64 %57 to double
  %59 = load i64, ptr %7, align 8, !tbaa !10
  %60 = call double @FastLog2(i64 noundef %59)
  %61 = load double, ptr %8, align 8, !tbaa !27
  %62 = call double @llvm.fmuladd.f64(double %58, double %60, double %61)
  store double %62, ptr %8, align 8, !tbaa !27
  br label %63

63:                                               ; preds = %56, %53
  %64 = load i64, ptr %7, align 8, !tbaa !10
  %65 = load ptr, ptr %6, align 8, !tbaa !16
  store i64 %64, ptr %65, align 8, !tbaa !10
  %66 = load double, ptr %8, align 8, !tbaa !27
  call void @llvm.lifetime.end.p0(i64 8, ptr %10) #10
  call void @llvm.lifetime.end.p0(i64 8, ptr %9) #10
  call void @llvm.lifetime.end.p0(i64 8, ptr %8) #10
  call void @llvm.lifetime.end.p0(i64 8, ptr %7) #10
  ret double %66
}

; Function Attrs: alwaysinline nounwind uwtable
define internal double @BitsEntropy(ptr noundef %0, i64 noundef %1) #2 {
  %3 = alloca ptr, align 8
  %4 = alloca i64, align 8
  %5 = alloca i64, align 8
  %6 = alloca double, align 8
  store ptr %0, ptr %3, align 8, !tbaa !14
  store i64 %1, ptr %4, align 8, !tbaa !10
  call void @llvm.lifetime.start.p0(i64 8, ptr %5) #10
  call void @llvm.lifetime.start.p0(i64 8, ptr %6) #10
  %7 = load ptr, ptr %3, align 8, !tbaa !14
  %8 = load i64, ptr %4, align 8, !tbaa !10
  %9 = call double @ShannonEntropy(ptr noundef %7, i64 noundef %8, ptr noundef %5)
  store double %9, ptr %6, align 8, !tbaa !27
  %10 = load double, ptr %6, align 8, !tbaa !27
  %11 = load i64, ptr %5, align 8, !tbaa !10
  %12 = uitofp i64 %11 to double
  %13 = fcmp olt double %10, %12
  br i1 %13, label %14, label %17

14:                                               ; preds = %2
  %15 = load i64, ptr %5, align 8, !tbaa !10
  %16 = uitofp i64 %15 to double
  store double %16, ptr %6, align 8, !tbaa !27
  br label %17

17:                                               ; preds = %14, %2
  %18 = load double, ptr %6, align 8, !tbaa !27
  call void @llvm.lifetime.end.p0(i64 8, ptr %6) #10
  call void @llvm.lifetime.end.p0(i64 8, ptr %5) #10
  ret double %18
}

; Function Attrs: nounwind uwtable
define internal i32 @ShouldCompress(ptr noundef %0, ptr noundef %1, i64 noundef %2, i64 noundef %3) #0 {
  %5 = alloca i32, align 4
  %6 = alloca ptr, align 8
  %7 = alloca ptr, align 8
  %8 = alloca i64, align 8
  %9 = alloca i64, align 8
  %10 = alloca double, align 8
  %11 = alloca i32, align 4
  %12 = alloca double, align 8
  %13 = alloca i64, align 8
  store ptr %0, ptr %6, align 8, !tbaa !3
  store ptr %1, ptr %7, align 8, !tbaa !8
  store i64 %2, ptr %8, align 8, !tbaa !10
  store i64 %3, ptr %9, align 8, !tbaa !10
  call void @llvm.lifetime.start.p0(i64 8, ptr %10) #10
  %14 = load i64, ptr %8, align 8, !tbaa !10
  %15 = uitofp i64 %14 to double
  store double %15, ptr %10, align 8, !tbaa !27
  %16 = load i64, ptr %9, align 8, !tbaa !10
  %17 = uitofp i64 %16 to double
  %18 = load double, ptr %10, align 8, !tbaa !27
  %19 = fmul double 0x3FEF5C28F5C28F5C, %18
  %20 = fcmp olt double %17, %19
  br i1 %20, label %21, label %22

21:                                               ; preds = %4
  store i32 1, ptr %5, align 4
  store i32 1, ptr %11, align 4
  br label %58

22:                                               ; preds = %4
  call void @llvm.lifetime.start.p0(i64 8, ptr %12) #10
  %23 = load double, ptr %10, align 8, !tbaa !27
  %24 = fmul double %23, 8.000000e+00
  %25 = fmul double %24, 0x3FEF5C28F5C28F5C
  %26 = fdiv double %25, 4.300000e+01
  store double %26, ptr %12, align 8, !tbaa !27
  call void @llvm.lifetime.start.p0(i64 8, ptr %13) #10
  %27 = load ptr, ptr %6, align 8, !tbaa !3
  %28 = getelementptr inbounds nuw %struct.BrotliTwoPassArena, ptr %27, i32 0, i32 0
  %29 = getelementptr inbounds [256 x i32], ptr %28, i64 0, i64 0
  call void @llvm.memset.p0.i64(ptr align 4 %29, i8 0, i64 1024, i1 false)
  store i64 0, ptr %13, align 8, !tbaa !10
  br label %30

30:                                               ; preds = %45, %22
  %31 = load i64, ptr %13, align 8, !tbaa !10
  %32 = load i64, ptr %8, align 8, !tbaa !10
  %33 = icmp ult i64 %31, %32
  br i1 %33, label %34, label %48

34:                                               ; preds = %30
  %35 = load ptr, ptr %6, align 8, !tbaa !3
  %36 = getelementptr inbounds nuw %struct.BrotliTwoPassArena, ptr %35, i32 0, i32 0
  %37 = load ptr, ptr %7, align 8, !tbaa !8
  %38 = load i64, ptr %13, align 8, !tbaa !10
  %39 = getelementptr inbounds nuw i8, ptr %37, i64 %38
  %40 = load i8, ptr %39, align 1, !tbaa !18
  %41 = zext i8 %40 to i64
  %42 = getelementptr inbounds nuw [256 x i32], ptr %36, i64 0, i64 %41
  %43 = load i32, ptr %42, align 4, !tbaa !12
  %44 = add i32 %43, 1
  store i32 %44, ptr %42, align 4, !tbaa !12
  br label %45

45:                                               ; preds = %34
  %46 = load i64, ptr %13, align 8, !tbaa !10
  %47 = add i64 %46, 43
  store i64 %47, ptr %13, align 8, !tbaa !10
  br label %30, !llvm.loop !29

48:                                               ; preds = %30
  %49 = load ptr, ptr %6, align 8, !tbaa !3
  %50 = getelementptr inbounds nuw %struct.BrotliTwoPassArena, ptr %49, i32 0, i32 0
  %51 = getelementptr inbounds [256 x i32], ptr %50, i64 0, i64 0
  %52 = call double @BitsEntropy(ptr noundef %51, i64 noundef 256)
  %53 = load double, ptr %12, align 8, !tbaa !27
  %54 = fcmp olt double %52, %53
  %55 = xor i1 %54, true
  %56 = xor i1 %55, true
  %57 = select i1 %56, i32 1, i32 0
  store i32 %57, ptr %5, align 4
  store i32 1, ptr %11, align 4
  call void @llvm.lifetime.end.p0(i64 8, ptr %13) #10
  call void @llvm.lifetime.end.p0(i64 8, ptr %12) #10
  br label %58

58:                                               ; preds = %48, %21
  call void @llvm.lifetime.end.p0(i64 8, ptr %10) #10
  %59 = load i32, ptr %5, align 4
  ret i32 %59
}